; Function Attrs: mustprogress uwtable
define noundef i64 @_ZNK6google8protobuf8internal12ExtensionSet8ByteSizeEv(ptr nocapture noundef nonnull readonly align 8 dereferenceable(24) %0) local_unnamed_addr #8 align 2 {
  %2 = getelementptr inbounds i8, ptr %0, i64 8
  %3 = load i16, ptr %2, align 8
  %4 = icmp ugt i16 %3, 256
  %5 = getelementptr inbounds i8, ptr %0, i64 16
  %6 = load ptr, ptr %5, align 8
  br i1 %4, label %7, label %17

7:                                                ; preds = %1
  %8 = getelementptr inbounds i8, ptr %6, i64 24
  %9 = load ptr, ptr %8, align 8
  %10 = getelementptr inbounds i8, ptr %6, i64 8
  %.not7.i.i = icmp eq ptr %9, %10
  br i1 %.not7.i.i, label %"_ZNK6google8protobuf8internal12ExtensionSet7ForEachIZNKS2_8ByteSizeEvE3$_0EET_S5_.exit", label %.lr.ph.i.i

.lr.ph.i.i:                                       ; preds = %7, %.lr.ph.i.i
  %.0 = phi i64 [ %15, %.lr.ph.i.i ], [ 0, %7 ]
  %.sroa.0.08.i.i = phi ptr [ %16, %.lr.ph.i.i ], [ %9, %7 ]
  %11 = getelementptr inbounds i8, ptr %.sroa.0.08.i.i, i64 32
  %12 = load i32, ptr %11, align 8
  %13 = getelementptr inbounds i8, ptr %.sroa.0.08.i.i, i64 40
  %14 = tail call noundef i64 @_ZNK6google8protobuf8internal12ExtensionSet9Extension8ByteSizeEi(ptr noundef nonnull align 8 dereferenceable(24) %13, i32 noundef %12)
  %15 = add i64 %14, %.0
  %16 = tail call noundef ptr @_ZSt18_Rb_tree_incrementPSt18_Rb_tree_node_base(ptr noundef %.sroa.0.08.i.i) #27
  %.not.i.i = icmp eq ptr %16, %10
  br i1 %.not.i.i, label %"_ZNK6google8protobuf8internal12ExtensionSet7ForEachIZNKS2_8ByteSizeEvE3$_0EET_S5_.exit", label %.lr.ph.i.i, !llvm.loop !88

17:                                               ; preds = %1
  %18 = getelementptr inbounds i8, ptr %0, i64 10
  %19 = load i16, ptr %18, align 2
  %20 = zext i16 %19 to i64
  %21 = getelementptr inbounds %"struct.google::protobuf::internal::ExtensionSet::KeyValue", ptr %6, i64 %20
  %.not6.i.i = icmp eq i16 %19, 0
  br i1 %.not6.i.i, label %"_ZNK6google8protobuf8internal12ExtensionSet7ForEachIZNKS2_8ByteSizeEvE3$_0EET_S5_.exit", label %.lr.ph.i6.i

.lr.ph.i6.i:                                      ; preds = %17, %.lr.ph.i6.i
  %.1 = phi i64 [ %25, %.lr.ph.i6.i ], [ 0, %17 ]
  %.07.i.i = phi ptr [ %26, %.lr.ph.i6.i ], [ %6, %17 ]
  %22 = load i32, ptr %.07.i.i, align 8
  %23 = getelementptr inbounds i8, ptr %.07.i.i, i64 8
  %24 = tail call noundef i64 @_ZNK6google8protobuf8internal12ExtensionSet9Extension8ByteSizeEi(ptr noundef nonnull align 8 dereferenceable(24) %23, i32 noundef %22)
  %25 = add i64 %24, %.1
  %26 = getelementptr inbounds i8, ptr %.07.i.i, i64 32
  %.not.i7.i = icmp eq ptr %26, %21
  br i1 %.not.i7.i, label %"_ZNK6google8protobuf8internal12ExtensionSet7ForEachIZNKS2_8ByteSizeEvE3$_0EET_S5_.exit", label %.lr.ph.i6.i, !llvm.loop !89

"_ZNK6google8protobuf8internal12ExtensionSet7ForEachIZNKS2_8ByteSizeEvE3$_0EET_S5_.exit": ; preds = %.lr.ph.i6.i, %.lr.ph.i.i, %7, %17
  %.2 = phi i64 [ 0, %7 ], [ 0, %17 ], [ %15, %.lr.ph.i.i ], [ %25, %.lr.ph.i6.i ]
  ret i64 %.2
}